target datalayout = "e-m:e-p270:32:32-p271:32:32-p272:64:64-i64:64-i128:128-f80:128-n8:16:32:64-S128"
target triple = "x86_64-unknown-linux-gnu"

%struct.QTailQLink = type { ptr, ptr }
%struct.USBPacket = type { i32, i64, ptr, i32, %struct.QEMUIOVector, i64, i8, i8, i32, i32, i32, ptr, %union.anon.10, %union.anon.11 }
%struct.QEMUIOVector = type { ptr, i32, %union.anon.7 }
%union.anon.7 = type { %struct.anon.8 }
%struct.anon.8 = type { i32, %struct.iovec }
%struct.iovec = type { ptr, i64 }
%union.anon.10 = type { %struct.QTailQLink }
%union.anon.11 = type { %struct.QTailQLink }
%struct.QEMUSGList = type { ptr, i32, i32, i64, ptr, ptr }
%struct.EHCIQueue = type { ptr, %union.anon.16, i32, i64, i32, i32, %struct.EHCIqh, i32, i32, i32, ptr, %union.anon.17 }
%union.anon.16 = type { %struct.QTailQLink }
%struct.EHCIqh = type { i32, i32, i32, i32, i32, i32, i32, [5 x i32] }
%union.anon.17 = type { %struct.QTailQLink }
%struct.EHCIPacket = type { ptr, %union.anon.18, %struct.EHCIqtd, i32, %struct.USBPacket, %struct.QEMUSGList, i32, i32 }
%union.anon.18 = type { %struct.QTailQLink }
%struct.EHCIqtd = type { i32, i32, i32, [5 x i32] }

@.str.24 = private unnamed_addr constant [26 x i8] c"../qemu/hw/usb/hcd-ehci.c\00", align 1
@.str.46 = private unnamed_addr constant [10 x i8] c"p != NULL\00", align 1
@.str.47 = private unnamed_addr constant [25 x i8] c"p->qtdaddr == q->qtdaddr\00", align 1
@__PRETTY_FUNCTION__.ehci_state_writeback = private unnamed_addr constant [38 x i8] c"int ehci_state_writeback(EHCIQueue *)\00", align 1

; Function Attrs: nounwind sspstrong uwtable
define internal i32 @ehci_state_writeback(ptr noundef %q) #0 {
entry:
  %q.addr = alloca ptr, align 8
  %p = alloca ptr, align 8
  %qtd = alloca ptr, align 8
  %addr = alloca i32, align 4
  %again = alloca i32, align 4
  store ptr %q, ptr %q.addr, align 8
  %0 = load ptr, ptr %q.addr, align 8
  %packets = getelementptr inbounds %struct.EHCIQueue, ptr %0, i32 0, i32 11
  %1 = load ptr, ptr %packets, align 8
  store ptr %1, ptr %p, align 8
  store i32 0, ptr %again, align 4
  %2 = load ptr, ptr %p, align 8
  %cmp = icmp ne ptr %2, null
  br i1 %cmp, label %if.then, label %if.else

if.then:                                          ; preds = %entry
  br label %if.end

if.else:                                          ; preds = %entry
  call void @__assert_fail(ptr noundef @.str.46, ptr noundef @.str.24, i32 noundef 2008, ptr noundef @__PRETTY_FUNCTION__.ehci_state_writeback) #12
  unreachable

if.end:                                           ; preds = %if.then
  %3 = load ptr, ptr %p, align 8
  %qtdaddr = getelementptr inbounds %struct.EHCIPacket, ptr %3, i32 0, i32 3
  %4 = load i32, ptr %qtdaddr, align 8
  %5 = load ptr, ptr %q.addr, align 8
  %qtdaddr1 = getelementptr inbounds %struct.EHCIQueue, ptr %5, i32 0, i32 8
  %6 = load i32, ptr %qtdaddr1, align 4
  %cmp2 = icmp eq i32 %4, %6
  br i1 %cmp2, label %if.then3, label %if.else4

if.then3:                                         ; preds = %if.end
  br label %if.end5

if.else4:                                         ; preds = %if.end
  call void @__assert_fail(ptr noundef @.str.47, ptr noundef @.str.24, i32 noundef 2009, ptr noundef @__PRETTY_FUNCTION__.ehci_state_writeback) #12
  unreachable

if.end5:                                          ; preds = %if.then3
  %7 = load ptr, ptr %q.addr, align 8
  %8 = load ptr, ptr %p, align 8
  %qtdaddr6 = getelementptr inbounds %struct.EHCIPacket, ptr %8, i32 0, i32 3
  %9 = load i32, ptr %qtdaddr6, align 8
  %and = and i32 %9, -32
  %conv = zext i32 %and to i64
  %10 = load ptr, ptr %q.addr, align 8
  %qh = getelementptr inbounds %struct.EHCIQueue, ptr %10, i32 0, i32 6
  %next_qtd = getelementptr inbounds %struct.EHCIqh, ptr %qh, i32 0, i32 4
  call void @ehci_trace_qtd(ptr noundef %7, i64 noundef %conv, ptr noundef %next_qtd)
  %11 = load ptr, ptr %q.addr, align 8
  %qh7 = getelementptr inbounds %struct.EHCIQueue, ptr %11, i32 0, i32 6
  %next_qtd8 = getelementptr inbounds %struct.EHCIqh, ptr %qh7, i32 0, i32 4
  store ptr %next_qtd8, ptr %qtd, align 8
  %12 = load ptr, ptr %p, align 8
  %qtdaddr9 = getelementptr inbounds %struct.EHCIPacket, ptr %12, i32 0, i32 3
  %13 = load i32, ptr %qtdaddr9, align 8
  %and10 = and i32 %13, -32
  store i32 %and10, ptr %addr, align 4
  %14 = load ptr, ptr %q.addr, align 8
  %ehci = getelementptr inbounds %struct.EHCIQueue, ptr %14, i32 0, i32 0
  %15 = load ptr, ptr %ehci, align 8
  %16 = load i32, ptr %addr, align 4
  %conv11 = zext i32 %16 to i64
  %add = add i64 %conv11, 12
  %conv12 = trunc i64 %add to i32
  %17 = load ptr, ptr %qtd, align 8
  %add.ptr = getelementptr i32, ptr %17, i64 3
  %call = call i32 @put_dwords(ptr noundef %15, i32 noundef %conv12, ptr noundef %add.ptr, i32 noundef 1)
  %18 = load ptr, ptr %q.addr, align 8
  %ehci13 = getelementptr inbounds %struct.EHCIQueue, ptr %18, i32 0, i32 0
  %19 = load ptr, ptr %ehci13, align 8
  %20 = load i32, ptr %addr, align 4
  %conv14 = zext i32 %20 to i64
  %add15 = add i64 %conv14, 8
  %conv16 = trunc i64 %add15 to i32
  %21 = load ptr, ptr %qtd, align 8
  %add.ptr17 = getelementptr i32, ptr %21, i64 2
  %call18 = call i32 @put_dwords(ptr noundef %19, i32 noundef %conv16, ptr noundef %add.ptr17, i32 noundef 1)
  %22 = load ptr, ptr %p, align 8
  call void @ehci_free_packet(ptr noundef %22)
  %23 = load ptr, ptr %q.addr, align 8
  %qh19 = getelementptr inbounds %struct.EHCIQueue, ptr %23, i32 0, i32 6
  %token = getelementptr inbounds %struct.EHCIqh, ptr %qh19, i32 0, i32 6
  %24 = load i32, ptr %token, align 8
  %and20 = and i32 %24, 64
  %tobool = icmp ne i32 %and20, 0
  br i1 %tobool, label %if.then21, label %if.else23

if.then21:                                        ; preds = %if.end5
  %25 = load ptr, ptr %q.addr, align 8
  %ehci22 = getelementptr inbounds %struct.EHCIQueue, ptr %25, i32 0, i32 0
  %26 = load ptr, ptr %ehci22, align 8
  %27 = load ptr, ptr %q.addr, align 8
  %async = getelementptr inbounds %struct.EHCIQueue, ptr %27, i32 0, i32 4
  %28 = load i32, ptr %async, align 8
  call void @ehci_set_state(ptr noundef %26, i32 noundef %28, i32 noundef 1013)
  store i32 1, ptr %again, align 4
  br label %if.end26

if.else23:                                        ; preds = %if.end5
  %29 = load ptr, ptr %q.addr, align 8
  %ehci24 = getelementptr inbounds %struct.EHCIQueue, ptr %29, i32 0, i32 0
  %30 = load ptr, ptr %ehci24, align 8
  %31 = load ptr, ptr %q.addr, align 8
  %async25 = getelementptr inbounds %struct.EHCIQueue, ptr %31, i32 0, i32 4
  %32 = load i32, ptr %async25, align 8
  call void @ehci_set_state(ptr noundef %30, i32 noundef %32, i32 noundef 1009)
  store i32 1, ptr %again, align 4
  br label %if.end26

if.end26:                                         ; preds = %if.else23, %if.then21
  %33 = load i32, ptr %again, align 4
  ret i32 %33
}