; Function Attrs: nounwind sspstrong uwtable
define internal fastcc void @ehci_state_writeback(ptr noundef %q) unnamed_addr #0 {
entry:
  %packets = getelementptr inbounds nuw i8, ptr %q, i64 120
  %0 = load ptr, ptr %packets, align 8
  %cmp.not = icmp eq ptr %0, null
  br i1 %cmp.not, label %if.else, label %if.end

if.else:                                          ; preds = %entry
  tail call void @__assert_fail(ptr noundef nonnull @.str.46, ptr noundef nonnull @.str.24, i32 noundef 2008, ptr noundef nonnull @__PRETTY_FUNCTION__.ehci_state_writeback) #20
  unreachable

if.end:                                           ; preds = %entry
  %qtdaddr = getelementptr inbounds nuw i8, ptr %0, i64 56
  %1 = load i32, ptr %qtdaddr, align 8
  %qtdaddr1 = getelementptr inbounds nuw i8, ptr %q, i64 100
  %2 = load i32, ptr %qtdaddr1, align 4
  %cmp2 = icmp eq i32 %1, %2
  br i1 %cmp2, label %if.end5, label %if.else4

if.else4:                                         ; preds = %if.end
  tail call void @__assert_fail(ptr noundef nonnull @.str.47, ptr noundef nonnull @.str.24, i32 noundef 2009, ptr noundef nonnull @__PRETTY_FUNCTION__.ehci_state_writeback) #20
  unreachable

if.end5:                                          ; preds = %if.end
  %and = and i32 %1, -32
  %conv = zext i32 %and to i64
  %next_qtd = getelementptr inbounds nuw i8, ptr %q, i64 64
  tail call fastcc void @ehci_trace_qtd(ptr noundef nonnull %q, i64 noundef %conv, ptr noundef nonnull %next_qtd)
  %3 = load i32, ptr %qtdaddr, align 8
  %and10 = and i32 %3, -32
  %4 = load ptr, ptr %q, align 8
  %add = or disjoint i32 %and10, 12
  %add.ptr = getelementptr i8, ptr %q, i64 76
  tail call fastcc void @put_dwords(ptr noundef %4, i32 noundef %add, ptr noundef %add.ptr, i32 noundef 1)
  %5 = load ptr, ptr %q, align 8
  %6 = or disjoint i32 %and10, 8
  %add.ptr17 = getelementptr i8, ptr %q, i64 72
  tail call fastcc void @put_dwords(ptr noundef %5, i32 noundef %6, ptr noundef %add.ptr17, i32 noundef 1)
  tail call fastcc void @ehci_free_packet(ptr noundef nonnull %0)
  %7 = load i32, ptr %add.ptr17, align 8
  %and20 = and i32 %7, 64
  %tobool.not = icmp eq i32 %and20, 0
  %8 = load ptr, ptr %q, align 8
  %async25 = getelementptr inbounds nuw i8, ptr %q, i64 40
  %9 = load i32, ptr %async25, align 8
  %. = select i1 %tobool.not, i32 1009, i32 1013
  tail call fastcc void @ehci_set_state(ptr noundef %8, i32 noundef %9, i32 noundef %.)
  ret void
}